target datalayout = "e-m:e-p270:32:32-p271:32:32-p272:64:64-i64:64-i128:128-f80:128-n8:16:32:64-S128"
target triple = "x86_64-pc-linux-gnu"

@pref_keylog_file = internal global ptr null, align 8
@wg_decryption_supported = internal global i8 0, align 1
@wg_keylog_file = internal global ptr null, align 8
@.str.108 = private unnamed_addr constant [2 x i8] c"r\00", align 1
@wg_keylog_last_ekey = internal global ptr null, align 8

; Function Attrs: null_pointer_is_valid sspstrong uwtable
define internal void @wg_keylog_reset() #0 {
  %1 = load ptr, ptr @wg_keylog_file, align 8
  %2 = icmp ne ptr %1, null
  br i1 %2, label %3, label %6

3:                                                ; preds = %0
  %4 = load ptr, ptr @wg_keylog_file, align 8
  %5 = call i32 @fclose(ptr noundef %4)
  store ptr null, ptr @wg_keylog_file, align 8
  store ptr null, ptr @wg_keylog_last_ekey, align 8
  br label %6

6:                                                ; preds = %3, %0
  ret void
}

; Function Attrs: null_pointer_is_valid sspstrong uwtable
define internal void @wg_keylog_read() #0 {
  %1 = alloca [512 x i8], align 16
  %2 = alloca i32, align 4
  %3 = load i8, ptr @wg_decryption_supported, align 1, !range !6, !noundef !7
  %4 = trunc i8 %3 to i1
  br i1 %4, label %6, label %5

5:                                                ; preds = %0
  br label %69

6:                                                ; preds = %0
  %7 = load ptr, ptr @pref_keylog_file, align 8
  %8 = icmp ne ptr %7, null
  br i1 %8, label %9, label %13

9:                                                ; preds = %6
  %10 = load ptr, ptr @pref_keylog_file, align 8
  %11 = load i8, ptr %10, align 1
  %12 = icmp ne i8 %11, 0
  br i1 %12, label %14, label %13

13:                                               ; preds = %9, %6
  br label %69

14:                                               ; preds = %9
  %15 = load ptr, ptr @wg_keylog_file, align 8
  %16 = icmp ne ptr %15, null
  br i1 %16, label %17, label %25

17:                                               ; preds = %14
  %18 = load ptr, ptr @wg_keylog_file, align 8
  %19 = call i32 @fileno(ptr noundef %18) #19
  %20 = load ptr, ptr @pref_keylog_file, align 8
  %21 = call zeroext i1 @file_needs_reopen(i32 noundef %19, ptr noundef %20)
  br i1 %21, label %22, label %25

22:                                               ; preds = %17
  br label %23

23:                                               ; preds = %22
  br label %24

24:                                               ; preds = %23
  call void @wg_keylog_reset()
  br label %25

25:                                               ; preds = %24, %17, %14
  %26 = load ptr, ptr @wg_keylog_file, align 8
  %27 = icmp ne ptr %26, null
  br i1 %27, label %39, label %28

28:                                               ; preds = %25
  %29 = load ptr, ptr @pref_keylog_file, align 8
  %30 = call noalias ptr @fopen(ptr noundef %29, ptr noundef @.str.108)
  store ptr %30, ptr @wg_keylog_file, align 8
  %31 = load ptr, ptr @wg_keylog_file, align 8
  %32 = icmp ne ptr %31, null
  br i1 %32, label %36, label %33

33:                                               ; preds = %28
  br label %34

34:                                               ; preds = %33
  br label %35

35:                                               ; preds = %34
  br label %69

36:                                               ; preds = %28
  br label %37

37:                                               ; preds = %36
  br label %38

38:                                               ; preds = %37
  br label %39

39:                                               ; preds = %38, %25
  br label %40

40:                                               ; preds = %68, %39
  call void @llvm.lifetime.start.p0(i64 512, ptr %1) #19
  %41 = getelementptr inbounds [512 x i8], ptr %1, i64 0, i64 0
  %42 = load ptr, ptr @wg_keylog_file, align 8
  %43 = call ptr @fgets(ptr noundef %41, i32 noundef 512, ptr noundef %42)
  %44 = icmp ne ptr %43, null
  br i1 %44, label %61, label %45

45:                                               ; preds = %40
  %46 = load ptr, ptr @wg_keylog_file, align 8
  %47 = call i32 @feof(ptr noundef %46) #19
  %48 = icmp ne i32 %47, 0
  br i1 %48, label %49, label %51

49:                                               ; preds = %45
  %50 = load ptr, ptr @wg_keylog_file, align 8
  call void @clearerr(ptr noundef %50) #19
  br label %60

51:                                               ; preds = %45
  %52 = load ptr, ptr @wg_keylog_file, align 8
  %53 = call i32 @ferror(ptr noundef %52) #19
  %54 = icmp ne i32 %53, 0
  br i1 %54, label %55, label %59

55:                                               ; preds = %51
  br label %56

56:                                               ; preds = %55
  br label %57

57:                                               ; preds = %56
  br label %58

58:                                               ; preds = %57
  call void @wg_keylog_reset()
  br label %59

59:                                               ; preds = %58, %51
  br label %60

60:                                               ; preds = %59, %49
  store i32 8, ptr %2, align 4
  br label %66

61:                                               ; preds = %40
  %62 = getelementptr inbounds [512 x i8], ptr %1, i64 0, i64 0
  %63 = getelementptr inbounds [512 x i8], ptr %1, i64 0, i64 0
  %64 = call i64 @strlen(ptr noundef %63) #20
  %65 = trunc i64 %64 to i32
  call void @wg_keylog_process_lines(ptr noundef %62, i32 noundef %65)
  store i32 0, ptr %2, align 4
  br label %66

66:                                               ; preds = %61, %60
  call void @llvm.lifetime.end.p0(i64 512, ptr %1) #19
  %67 = load i32, ptr %2, align 4
  switch i32 %67, label %70 [
    i32 0, label %68
    i32 8, label %69
  ]

68:                                               ; preds = %66
  br label %40

69:                                               ; preds = %5, %13, %35, %66
  ret void

70:                                               ; preds = %66
  unreachable
}