; Function Attrs: null_pointer_is_valid sspstrong uwtable
define internal fastcc void @wg_keylog_read() unnamed_addr #0 {
  %1 = alloca [512 x i8], align 16
  %.b17 = load i1, ptr @wg_decryption_supported, align 1
  %2 = load ptr, ptr @pref_keylog_file, align 8
  %3 = icmp ne ptr %2, null
  %or.cond = select i1 %.b17, i1 %3, i1 false
  br i1 %or.cond, label %4, label %33

4:                                                ; preds = %0
  %5 = load i8, ptr %2, align 1
  %.not = icmp eq i8 %5, 0
  br i1 %.not, label %33, label %6

6:                                                ; preds = %4
  %7 = load ptr, ptr @wg_keylog_file, align 8
  %.not4 = icmp eq ptr %7, null
  br i1 %.not4, label %wg_keylog_reset.exit.thread, label %8

8:                                                ; preds = %6
  %9 = tail call i32 @fileno(ptr noundef nonnull %7) #18
  %10 = load ptr, ptr @pref_keylog_file, align 8
  %11 = tail call zeroext i1 @file_needs_reopen(i32 noundef %9, ptr noundef %10)
  %12 = load ptr, ptr @wg_keylog_file, align 8
  %.not.i = icmp eq ptr %12, null
  br i1 %11, label %13, label %wg_keylog_reset.exit

13:                                               ; preds = %8
  br i1 %.not.i, label %wg_keylog_reset.exit.thread, label %14

14:                                               ; preds = %13
  %15 = tail call i32 @fclose(ptr noundef nonnull %12)
  store ptr null, ptr @wg_keylog_file, align 8
  store ptr null, ptr @wg_keylog_last_ekey, align 8
  br label %wg_keylog_reset.exit.thread

wg_keylog_reset.exit:                             ; preds = %8
  br i1 %.not.i, label %wg_keylog_reset.exit.thread, label %18

wg_keylog_reset.exit.thread:                      ; preds = %6, %13, %14, %wg_keylog_reset.exit
  %16 = load ptr, ptr @pref_keylog_file, align 8
  %17 = tail call noalias ptr @fopen(ptr noundef %16, ptr noundef nonnull @.str.108)
  store ptr %17, ptr @wg_keylog_file, align 8
  %.not6 = icmp eq ptr %17, null
  br i1 %.not6, label %33, label %18

18:                                               ; preds = %wg_keylog_reset.exit.thread, %wg_keylog_reset.exit
  %19 = phi ptr [ %17, %wg_keylog_reset.exit.thread ], [ %12, %wg_keylog_reset.exit ]
  call void @llvm.lifetime.start.p0(i64 512, ptr nonnull %1) #18
  %20 = call ptr @fgets(ptr noundef nonnull %1, i32 noundef 512, ptr noundef nonnull %19)
  %.not716 = icmp eq ptr %20, null
  br i1 %.not716, label %._crit_edge, label %wg_keylog_reset.exit11

._crit_edge:                                      ; preds = %wg_keylog_reset.exit11, %18
  %21 = load ptr, ptr @wg_keylog_file, align 8
  %22 = call i32 @feof(ptr noundef %21) #18
  %.not8 = icmp eq i32 %22, 0
  %23 = load ptr, ptr @wg_keylog_file, align 8
  br i1 %.not8, label %25, label %24

24:                                               ; preds = %._crit_edge
  call void @clearerr(ptr noundef %23) #18
  br label %wg_keylog_reset.exit11.thread

25:                                               ; preds = %._crit_edge
  %26 = call i32 @ferror(ptr noundef %23) #18
  %.not9 = icmp eq i32 %26, 0
  %.not.i10 = icmp eq ptr %23, null
  %or.cond15 = or i1 %.not.i10, %.not9
  br i1 %or.cond15, label %wg_keylog_reset.exit11.thread, label %27

27:                                               ; preds = %25
  %28 = call i32 @fclose(ptr noundef nonnull %23)
  store ptr null, ptr @wg_keylog_file, align 8
  store ptr null, ptr @wg_keylog_last_ekey, align 8
  br label %wg_keylog_reset.exit11.thread

wg_keylog_reset.exit11.thread:                    ; preds = %25, %24, %27
  call void @llvm.lifetime.end.p0(i64 512, ptr nonnull %1) #18
  br label %33

wg_keylog_reset.exit11:                           ; preds = %18, %wg_keylog_reset.exit11
  %29 = call i64 @strlen(ptr noundef nonnull dereferenceable(1) %1) #19
  %30 = trunc i64 %29 to i32
  call void @wg_keylog_process_lines(ptr noundef nonnull %1, i32 noundef %30)
  call void @llvm.lifetime.end.p0(i64 512, ptr nonnull %1) #18
  call void @llvm.lifetime.start.p0(i64 512, ptr nonnull %1) #18
  %31 = load ptr, ptr @wg_keylog_file, align 8
  %32 = call ptr @fgets(ptr noundef nonnull %1, i32 noundef 512, ptr noundef %31)
  %.not7 = icmp eq ptr %32, null
  br i1 %.not7, label %._crit_edge, label %wg_keylog_reset.exit11

33:                                               ; preds = %wg_keylog_reset.exit11.thread, %wg_keylog_reset.exit.thread, %4, %0
  ret void
}